; ModuleID = 'source-C-CXX/27/250.c'
source_filename = "source-C-CXX/27/250.c"
target datalayout = "e-m:e-p270:32:32-p271:32:32-p272:64:64-i64:64-f80:128-n8:16:32:64-S128"
target triple = "x86_64-pc-linux-gnu"

%struct._IO_FILE = type { i32, i8*, i8*, i8*, i8*, i8*, i8*, i8*, i8*, i8*, i8*, i8*, %struct._IO_marker*, %struct._IO_FILE*, i32, i32, i64, i16, i8, [1 x i8], i8*, i64, %struct._IO_codecvt*, %struct._IO_wide_data*, %struct._IO_FILE*, i8*, i64, i32, [20 x i8] }
%struct._IO_marker = type opaque
%struct._IO_codecvt = type opaque
%struct._IO_wide_data = type opaque

@.str = private unnamed_addr constant [3 x i8] c"%d\00", align 1
@.str.1 = private unnamed_addr constant [4 x i8] c",%d\00", align 1
@stdin = external local_unnamed_addr global %struct._IO_FILE*, align 8

; Function Attrs: nofree nounwind sspstrong uwtable
define dso_local void @main() local_unnamed_addr #0 {
  %1 = alloca [301 x i32], align 16
  %2 = bitcast [301 x i32]* %1 to i8*
  call void @llvm.lifetime.start.p0i8(i64 1204, i8* nonnull %2) #4
  call void @llvm.memset.p0i8.i64(i8* noundef nonnull align 16 dereferenceable(1204) %2, i8 0, i64 1204, i1 false)
  br label %3

3:                                                ; preds = %12, %0
  %4 = phi i32 [ %14, %12 ], [ 0, %0 ]
  %5 = phi i32 [ %15, %12 ], [ undef, %0 ]
  %6 = phi i1 [ false, %12 ], [ true, %0 ]
  br label %7

7:                                                ; preds = %3, %7
  %8 = phi i1 [ true, %7 ], [ %6, %3 ]
  %9 = load %struct._IO_FILE*, %struct._IO_FILE** @stdin, align 8, !tbaa !5
  %10 = tail call i32 @getc(%struct._IO_FILE* %9) #4
  %11 = shl i32 %10, 24
  switch i32 %11, label %12 [
    i32 167772160, label %20
    i32 536870912, label %7
  ], !llvm.loop !9

12:                                               ; preds = %7
  %13 = add nsw i32 %4, 1
  %14 = select i1 %8, i32 %13, i32 %4
  %15 = select i1 %8, i32 %13, i32 %5
  %16 = sext i32 %15 to i64
  %17 = getelementptr inbounds [301 x i32], [301 x i32]* %1, i64 0, i64 %16
  %18 = load i32, i32* %17, align 4, !tbaa !11
  %19 = add nsw i32 %18, 1
  store i32 %19, i32* %17, align 4, !tbaa !11
  br label %3, !llvm.loop !9

20:                                               ; preds = %7
  %21 = getelementptr inbounds [301 x i32], [301 x i32]* %1, i64 0, i64 1
  %22 = load i32, i32* %21, align 4, !tbaa !11
  %23 = tail call i32 (i8*, ...) @printf(i8* nonnull dereferenceable(1) getelementptr inbounds ([3 x i8], [3 x i8]* @.str, i64 0, i64 0), i32 %22)
  %24 = icmp slt i32 %4, 2
  br i1 %24, label %35, label %25

25:                                               ; preds = %20
  %26 = add nuw i32 %4, 1
  %27 = zext i32 %26 to i64
  br label %28

28:                                               ; preds = %25, %28
  %29 = phi i64 [ 2, %25 ], [ %33, %28 ]
  %30 = getelementptr inbounds [301 x i32], [301 x i32]* %1, i64 0, i64 %29
  %31 = load i32, i32* %30, align 4, !tbaa !11
  %32 = tail call i32 (i8*, ...) @printf(i8* nonnull dereferenceable(1) getelementptr inbounds ([4 x i8], [4 x i8]* @.str.1, i64 0, i64 0), i32 %31)
  %33 = add nuw nsw i64 %29, 1
  %34 = icmp eq i64 %33, %27
  br i1 %34, label %35, label %28, !llvm.loop !13

35:                                               ; preds = %28, %20
  call void @llvm.lifetime.end.p0i8(i64 1204, i8* nonnull %2) #4
  ret void
}

; Function Attrs: argmemonly mustprogress nofree nosync nounwind willreturn
declare void @llvm.lifetime.start.p0i8(i64 immarg, i8* nocapture) #1

; Function Attrs: argmemonly mustprogress nofree nounwind willreturn writeonly
declare void @llvm.memset.p0i8.i64(i8* nocapture writeonly, i8, i64, i1 immarg) #2

; Function Attrs: nofree nounwind
declare noundef i32 @printf(i8* nocapture noundef readonly, ...) local_unnamed_addr #3

; Function Attrs: argmemonly mustprogress nofree nosync nounwind willreturn
declare void @llvm.lifetime.end.p0i8(i64 immarg, i8* nocapture) #1

; Function Attrs: nofree nounwind
declare noundef i32 @getc(%struct._IO_FILE* nocapture noundef) local_unnamed_addr #3


!llvm.module.flags = !{!0, !1, !2, !3}
!llvm.ident = !{!4}

!0 = !{i32 1, !"wchar_size", i32 4}
!1 = !{i32 7, !"PIC Level", i32 2}
!2 = !{i32 7, !"PIE Level", i32 2}
!3 = !{i32 7, !"uwtable", i32 1}
!4 = !{!"clang version 13.0.0"}
!5 = !{!6, !6, i64 0}
!6 = !{!"any pointer", !7, i64 0}
!7 = !{!"omnipotent char", !8, i64 0}
!8 = !{!"Simple C/C++ TBAA"}
!9 = distinct !{!9, !10}
!10 = !{!"llvm.loop.mustprogress"}
!11 = !{!12, !12, i64 0}
!12 = !{!"int", !7, i64 0}
!13 = distinct !{!13, !10}
